; Function Attrs: mustprogress nofree norecurse nosync nounwind null_pointer_is_valid sspstrong willreturn memory(argmem: read) uwtable
define internal range(i32 0, 2) i32 @quic_stream_equal(ptr noundef readonly captures(none) %0, ptr noundef readonly captures(none) %1) #11 {
  %3 = getelementptr inbounds nuw i8, ptr %0, i64 8
  %4 = load i32, ptr %3, align 8
  %5 = getelementptr inbounds nuw i8, ptr %1, i64 8
  %6 = load i32, ptr %5, align 8
  %7 = icmp eq i32 %4, %6
  br i1 %7, label %8, label %25

8:                                                ; preds = %2
  %9 = load i64, ptr %0, align 8
  %10 = load i64, ptr %1, align 8
  %11 = icmp eq i64 %9, %10
  br i1 %11, label %12, label %25

12:                                               ; preds = %8
  %13 = getelementptr inbounds nuw i8, ptr %0, i64 12
  %14 = load i32, ptr %13, align 4
  %15 = getelementptr inbounds nuw i8, ptr %1, i64 12
  %16 = load i32, ptr %15, align 4
  %17 = icmp eq i32 %14, %16
  br i1 %17, label %18, label %25

18:                                               ; preds = %12
  %19 = getelementptr inbounds nuw i8, ptr %0, i64 16
  %20 = load i8, ptr %19, align 8, !range !6, !noundef !7
  %21 = getelementptr inbounds nuw i8, ptr %1, i64 16
  %22 = load i8, ptr %21, align 8, !range !6, !noundef !7
  %23 = icmp eq i8 %20, %22
  %24 = zext i1 %23 to i32
  br label %25

25:                                               ; preds = %18, %12, %8, %2
  %26 = phi i32 [ 0, %12 ], [ 0, %8 ], [ 0, %2 ], [ %24, %18 ]
  ret i32 %26
}